; Function Attrs: mustprogress nounwind uwtable
define hidden noundef ptr @_ZN14LibraryCallKit35get_uncommon_trap_from_success_projEP4Node(ptr noundef %0) local_unnamed_addr #0 align 2 {
  %2 = getelementptr inbounds i8, ptr %0, i64 44
  %3 = load i32, ptr %2, align 4
  %4 = and i32 %3, 127
  %5 = icmp eq i32 %4, 72
  br i1 %5, label %6, label %.loopexit

6:                                                ; preds = %1
  %7 = tail call noundef ptr @_ZNK8ProjNode13other_if_projEv(ptr noundef nonnull align 8 dereferenceable(57) %0) #13
  %8 = getelementptr inbounds i8, ptr %7, i64 16
  %9 = load ptr, ptr %8, align 8
  %10 = getelementptr inbounds i8, ptr %7, i64 32
  %11 = load i32, ptr %10, align 8
  %12 = zext i32 %11 to i64
  %13 = getelementptr inbounds ptr, ptr %9, i64 %12
  %.not = icmp eq i32 %11, 0
  br i1 %.not, label %.loopexit, label %.lr.ph

.lr.ph:                                           ; preds = %6
  %14 = load ptr, ptr @_ZN13SharedRuntime19_uncommon_trap_blobE, align 8
  %15 = getelementptr inbounds i8, ptr %14, i64 36
  br label %16

16:                                               ; preds = %.lr.ph, %34
  %.01314 = phi ptr [ %9, %.lr.ph ], [ %35, %34 ]
  %17 = load ptr, ptr %.01314, align 8
  %18 = getelementptr inbounds i8, ptr %17, i64 8
  %19 = load ptr, ptr %18, align 8
  %20 = load ptr, ptr %19, align 8
  %21 = icmp eq ptr %20, %7
  br i1 %21, label %22, label %34

22:                                               ; preds = %16
  %23 = getelementptr inbounds i8, ptr %17, i64 44
  %24 = load i32, ptr %23, align 4
  %25 = and i32 %24, 31
  %26 = icmp eq i32 %25, 31
  br i1 %26, label %27, label %34

27:                                               ; preds = %22
  %28 = getelementptr inbounds i8, ptr %17, i64 96
  %29 = load ptr, ptr %28, align 8
  %30 = load i32, ptr %15, align 4
  %31 = sext i32 %30 to i64
  %32 = getelementptr inbounds i8, ptr %14, i64 %31
  %33 = icmp eq ptr %29, %32
  br i1 %33, label %.loopexit, label %34

34:                                               ; preds = %16, %22, %27
  %35 = getelementptr inbounds i8, ptr %.01314, i64 8
  %36 = icmp ult ptr %35, %13
  br i1 %36, label %16, label %.loopexit, !llvm.loop !16

.loopexit:                                        ; preds = %34, %27, %6, %1
  %.0 = phi ptr [ null, %1 ], [ null, %6 ], [ null, %34 ], [ %17, %27 ]
  ret ptr %.0
}